target datalayout = "e-m:e-p270:32:32-p271:32:32-p272:64:64-i64:64-i128:128-f80:128-n8:16:32:64-S128"
target triple = "x86_64-pc-linux-gnu"

%"class.folly::Range" = type { ptr, ptr }
%"class.std::exception" = type { ptr }
%"class.folly::ConversionError" = type <{ %"struct.folly::ConversionErrorBase", i8, [7 x i8] }>
%"struct.folly::ConversionErrorBase" = type { %"class.std::range_error" }
%"class.std::range_error" = type { %"class.std::runtime_error" }
%"class.std::runtime_error" = type { %"class.std::exception", %"struct.std::__cow_string" }
%"struct.std::__cow_string" = type { %union.anon.2 }
%union.anon.2 = type { ptr }

; Function Attrs: mustprogress nounwind uwtable
define linkonce_odr noundef ptr @_ZNK5folly5RangeIPKcE3endEv(ptr noundef nonnull align 8 dereferenceable(16) %0) #1 comdat align 2 {
  %2 = alloca ptr, align 8
  store ptr %0, ptr %2, align 8, !tbaa !17
  %3 = load ptr, ptr %2, align 8
  %4 = getelementptr inbounds nuw %"class.folly::Range", ptr %3, i32 0, i32 1
  %5 = load ptr, ptr %4, align 8, !tbaa !21
  ret ptr %5
}

; Function Attrs: mustprogress nounwind uwtable
define linkonce_odr noundef ptr @_ZNK5folly5RangeIPKcE5beginEv(ptr noundef nonnull align 8 dereferenceable(16) %0) #1 comdat align 2 {
  %2 = alloca ptr, align 8
  store ptr %0, ptr %2, align 8, !tbaa !17
  %3 = load ptr, ptr %2, align 8
  %4 = getelementptr inbounds nuw %"class.folly::Range", ptr %3, i32 0, i32 0
  %5 = load ptr, ptr %4, align 8, !tbaa !19
  ret ptr %5
}

; Function Attrs: inlinehint mustprogress uwtable
define linkonce_odr noundef zeroext i8 @_ZN5folly6detail20enforceWhitespaceErrENS_5RangeIPKcEE(ptr %0, ptr %1) #4 comdat {
  %3 = alloca i8, align 1
  %4 = alloca %"class.folly::Range", align 8
  %5 = alloca ptr, align 8
  %6 = alloca ptr, align 8
  %7 = alloca ptr, align 8
  %8 = alloca i32, align 4
  %9 = alloca i8, align 1
  %10 = getelementptr inbounds nuw { ptr, ptr }, ptr %4, i32 0, i32 0
  store ptr %0, ptr %10, align 8
  %11 = getelementptr inbounds nuw { ptr, ptr }, ptr %4, i32 0, i32 1
  store ptr %1, ptr %11, align 8
  call void @llvm.lifetime.start.p0(i64 8, ptr %5) #27
  store ptr %4, ptr %5, align 8, !tbaa !17
  call void @llvm.lifetime.start.p0(i64 8, ptr %6) #27
  %12 = load ptr, ptr %5, align 8, !tbaa !17
  %13 = call noundef ptr @_ZNK5folly5RangeIPKcE5beginEv(ptr noundef nonnull align 8 dereferenceable(16) %12)
  store ptr %13, ptr %6, align 8, !tbaa !14
  call void @llvm.lifetime.start.p0(i64 8, ptr %7) #27
  %14 = load ptr, ptr %5, align 8, !tbaa !17
  %15 = call noundef ptr @_ZNK5folly5RangeIPKcE3endEv(ptr noundef nonnull align 8 dereferenceable(16) %14)
  store ptr %15, ptr %7, align 8, !tbaa !14
  br label %16

16:                                               ; preds = %37, %2
  %17 = load ptr, ptr %6, align 8, !tbaa !14
  %18 = load ptr, ptr %7, align 8, !tbaa !14
  %19 = icmp ne ptr %17, %18
  br i1 %19, label %21, label %20

20:                                               ; preds = %16
  store i32 2, ptr %8, align 4
  br label %40

21:                                               ; preds = %16
  call void @llvm.lifetime.start.p0(i64 1, ptr %9) #27
  %22 = load ptr, ptr %6, align 8, !tbaa !14
  %23 = load i8, ptr %22, align 1, !tbaa !7
  store i8 %23, ptr %9, align 1, !tbaa !7
  %24 = load i8, ptr %9, align 1, !tbaa !7
  %25 = sext i8 %24 to i32
  %26 = call i32 @isspace(i32 noundef %25) #32
  %27 = icmp ne i32 %26, 0
  %28 = xor i1 %27, true
  %29 = zext i1 %28 to i64
  %30 = call i64 @llvm.expect.i64(i64 %29, i64 0)
  %31 = icmp ne i64 %30, 0
  br i1 %31, label %32, label %33

32:                                               ; preds = %21
  store i8 10, ptr %3, align 1
  store i32 1, ptr %8, align 4
  br label %34

33:                                               ; preds = %21
  store i32 0, ptr %8, align 4
  br label %34

34:                                               ; preds = %33, %32
  call void @llvm.lifetime.end.p0(i64 1, ptr %9) #27
  %35 = load i32, ptr %8, align 4
  switch i32 %35, label %40 [
    i32 0, label %36
  ]

36:                                               ; preds = %34
  br label %37

37:                                               ; preds = %36
  %38 = load ptr, ptr %6, align 8, !tbaa !14
  %39 = getelementptr inbounds nuw i8, ptr %38, i32 1
  store ptr %39, ptr %6, align 8, !tbaa !14
  br label %16

40:                                               ; preds = %34, %20
  call void @llvm.lifetime.end.p0(i64 8, ptr %7) #27
  call void @llvm.lifetime.end.p0(i64 8, ptr %6) #27
  call void @llvm.lifetime.end.p0(i64 8, ptr %5) #27
  %41 = load i32, ptr %8, align 4
  switch i32 %41, label %45 [
    i32 2, label %42
    i32 1, label %43
  ]

42:                                               ; preds = %40
  store i8 0, ptr %3, align 1
  br label %43

43:                                               ; preds = %42, %40
  %44 = load i8, ptr %3, align 1
  ret i8 %44

45:                                               ; preds = %40
  unreachable
}

; Function Attrs: inlinehint mustprogress uwtable
define linkonce_odr void @_ZN5folly6detail17enforceWhitespaceENS_5RangeIPKcEE(ptr %0, ptr %1) #4 comdat personality ptr @__gxx_personality_v0 {
  %3 = alloca %"class.folly::Range", align 8
  %4 = alloca i8, align 1
  %5 = alloca %"class.folly::Range", align 8
  %6 = alloca %"class.folly::ConversionError", align 8
  %7 = alloca %"class.folly::Range", align 8
  %8 = alloca ptr, align 8
  %9 = alloca i32, align 4
  %10 = getelementptr inbounds nuw { ptr, ptr }, ptr %3, i32 0, i32 0
  store ptr %0, ptr %10, align 8
  %11 = getelementptr inbounds nuw { ptr, ptr }, ptr %3, i32 0, i32 1
  store ptr %1, ptr %11, align 8
  call void @llvm.lifetime.start.p0(i64 1, ptr %4) #27
  call void @llvm.memcpy.p0.p0.i64(ptr align 8 %5, ptr align 8 %3, i64 16, i1 false), !tbaa.struct !13
  %12 = getelementptr inbounds nuw { ptr, ptr }, ptr %5, i32 0, i32 0
  %13 = load ptr, ptr %12, align 8
  %14 = getelementptr inbounds nuw { ptr, ptr }, ptr %5, i32 0, i32 1
  %15 = load ptr, ptr %14, align 8
  %16 = call noundef zeroext i8 @_ZN5folly6detail20enforceWhitespaceErrENS_5RangeIPKcEE(ptr %13, ptr %15)
  store i8 %16, ptr %4, align 1, !tbaa !160
  %17 = load i8, ptr %4, align 1, !tbaa !160
  %18 = icmp ne i8 %17, 0
  br i1 %18, label %19, label %30

19:                                               ; preds = %2
  call void @llvm.lifetime.start.p0(i64 24, ptr %6) #27
  %20 = load i8, ptr %4, align 1, !tbaa !160
  call void @llvm.memcpy.p0.p0.i64(ptr align 8 %7, ptr align 8 %3, i64 16, i1 false), !tbaa.struct !13
  %21 = getelementptr inbounds nuw { ptr, ptr }, ptr %7, i32 0, i32 0
  %22 = load ptr, ptr %21, align 8
  %23 = getelementptr inbounds nuw { ptr, ptr }, ptr %7, i32 0, i32 1
  %24 = load ptr, ptr %23, align 8
  call void @_ZN5folly19makeConversionErrorENS_14ConversionCodeENS_5RangeIPKcEE(ptr dead_on_unwind writable sret(%"class.folly::ConversionError") align 8 %6, i8 noundef zeroext %20, ptr %22, ptr %24)
  invoke void @_ZN5folly15throw_exceptionINS_15ConversionErrorEEEvOT_(ptr noundef nonnull align 8 dereferenceable(17) %6) #34
          to label %25 unwind label %26

25:                                               ; preds = %19
  unreachable

26:                                               ; preds = %19
  %27 = landingpad { ptr, i32 }
          cleanup
  %28 = extractvalue { ptr, i32 } %27, 0
  store ptr %28, ptr %8, align 8
  %29 = extractvalue { ptr, i32 } %27, 1
  store i32 %29, ptr %9, align 4
  call void @_ZNSt11range_errorD2Ev(ptr noundef nonnull align 8 dereferenceable(17) %6) #27
  call void @llvm.lifetime.end.p0(i64 24, ptr %6) #27
  call void @llvm.lifetime.end.p0(i64 1, ptr %4) #27
  br label %31

30:                                               ; preds = %2
  call void @llvm.lifetime.end.p0(i64 1, ptr %4) #27
  ret void

31:                                               ; preds = %26
  %32 = load ptr, ptr %8, align 8
  %33 = load i32, ptr %9, align 4
  %34 = insertvalue { ptr, i32 } poison, ptr %32, 0
  %35 = insertvalue { ptr, i32 } %34, i32 %33, 1
  resume { ptr, i32 } %35
}

; Function Attrs: mustprogress uwtable
define noundef double @_ZN5folly14prettyToDoubleENS_5RangeIPKcEENS_10PrettyTypeE(ptr %0, ptr %1, i32 noundef %2) #0 {
  %4 = alloca %"class.folly::Range", align 8
  %5 = alloca i32, align 4
  %6 = alloca double, align 8
  %7 = alloca %"class.folly::Range", align 8
  %8 = getelementptr inbounds nuw { ptr, ptr }, ptr %4, i32 0, i32 0
  store ptr %0, ptr %8, align 8
  %9 = getelementptr inbounds nuw { ptr, ptr }, ptr %4, i32 0, i32 1
  store ptr %1, ptr %9, align 8
  store i32 %2, ptr %5, align 4, !tbaa !117
  call void @llvm.lifetime.start.p0(i64 8, ptr %6) #27
  %10 = load i32, ptr %5, align 4, !tbaa !117
  %11 = call noundef double @_ZN5folly14prettyToDoubleEPNS_5RangeIPKcEENS_10PrettyTypeE(ptr noundef %4, i32 noundef %10)
  store double %11, ptr %6, align 8, !tbaa !115
  call void @llvm.memcpy.p0.p0.i64(ptr align 8 %7, ptr align 8 %4, i64 16, i1 false), !tbaa.struct !13
  %12 = getelementptr inbounds nuw { ptr, ptr }, ptr %7, i32 0, i32 0
  %13 = load ptr, ptr %12, align 8
  %14 = getelementptr inbounds nuw { ptr, ptr }, ptr %7, i32 0, i32 1
  %15 = load ptr, ptr %14, align 8
  call void @_ZN5folly6detail17enforceWhitespaceENS_5RangeIPKcEE(ptr %13, ptr %15)
  %16 = load double, ptr %6, align 8, !tbaa !115
  call void @llvm.lifetime.end.p0(i64 8, ptr %6) #27
  ret double %16
}