; Function Attrs: mustprogress uwtable
define noundef double @_ZN5folly14prettyToDoubleENS_5RangeIPKcEENS_10PrettyTypeE(ptr %0, ptr %1, i32 noundef %2) local_unnamed_addr #3 personality ptr @__gxx_personality_v0 {
  %4 = alloca %"class.folly::ConversionError", align 8
  %5 = alloca %"class.folly::Range", align 8
  store ptr %0, ptr %5, align 8
  %6 = getelementptr inbounds nuw i8, ptr %5, i64 8
  store ptr %1, ptr %6, align 8
  %7 = call noundef double @_ZN5folly14prettyToDoubleEPNS_5RangeIPKcEENS_10PrettyTypeE(ptr noundef nonnull %5, i32 noundef %2)
  %.sroa.0.0.copyload = load ptr, ptr %5, align 8, !tbaa !25
  %.sroa.2.0.copyload = load ptr, ptr %6, align 8, !tbaa !25
  %.not13.i.i = icmp eq ptr %.sroa.0.0.copyload, %.sroa.2.0.copyload
  br i1 %.not13.i.i, label %_ZN5folly6detail17enforceWhitespaceENS_5RangeIPKcEE.exit, label %.lr.ph.i.i

8:                                                ; preds = %.lr.ph.i.i
  %9 = getelementptr inbounds nuw i8, ptr %.01114.i.i, i64 1
  %.not.i.i = icmp eq ptr %9, %.sroa.2.0.copyload
  br i1 %.not.i.i, label %_ZN5folly6detail17enforceWhitespaceENS_5RangeIPKcEE.exit, label %.lr.ph.i.i

.lr.ph.i.i:                                       ; preds = %3, %8
  %.01114.i.i = phi ptr [ %9, %8 ], [ %.sroa.0.0.copyload, %3 ]
  %10 = load i8, ptr %.01114.i.i, align 1, !tbaa !7
  %11 = sext i8 %10 to i32
  %12 = call i32 @isspace(i32 noundef %11) #31
  %.not12.not.i.i = icmp eq i32 %12, 0
  br i1 %.not12.not.i.i, label %_ZN5folly6detail20enforceWhitespaceErrENS_5RangeIPKcEE.exit.i, label %8

_ZN5folly6detail20enforceWhitespaceErrENS_5RangeIPKcEE.exit.i: ; preds = %.lr.ph.i.i
  call void @llvm.lifetime.start.p0(i64 24, ptr nonnull %4) #26
  call void @_ZN5folly19makeConversionErrorENS_14ConversionCodeENS_5RangeIPKcEE(ptr dead_on_unwind nonnull writable sret(%"class.folly::ConversionError") align 8 %4, i8 noundef zeroext 10, ptr %.sroa.0.0.copyload, ptr %.sroa.2.0.copyload)
  invoke void @_ZN5folly15throw_exceptionINS_15ConversionErrorEEEvOT_(ptr noundef nonnull align 8 dereferenceable(17) %4) #7
          to label %13 unwind label %14

13:                                               ; preds = %_ZN5folly6detail20enforceWhitespaceErrENS_5RangeIPKcEE.exit.i
  unreachable

14:                                               ; preds = %_ZN5folly6detail20enforceWhitespaceErrENS_5RangeIPKcEE.exit.i
  %15 = landingpad { ptr, i32 }
          cleanup
  call void @_ZNSt11range_errorD2Ev(ptr noundef nonnull align 8 dereferenceable(17) %4) #26
  call void @llvm.lifetime.end.p0(i64 24, ptr nonnull %4) #26
  resume { ptr, i32 } %15

_ZN5folly6detail17enforceWhitespaceENS_5RangeIPKcEE.exit: ; preds = %8, %3
  ret double %7
}